(ccopy_reg
_reconstructor
p0
(cnltk.classify.naivebayes
NaiveBayesClassifier
p1
c__builtin__
object
p2
Ntp3
Rp4
(dp5
S'_labels'
p6
(lp7
S'nope'
p8
aS'acc'
p9
asS'_feature_probdist'
p10
(dp11
(S'nope'
p12
S'keyword-count-5'
p13
tp14
g0
(cnltk.probability
ELEProbDist
p15
g2
Ntp16
Rp17
(dp18
S'_gamma'
p19
F0.5
sS'_N'
p20
I390
sS'_freqdist'
p21
g0
(cnltk.probability
FreqDist
p22
c__builtin__
dict
p23
(dp24
I01
I69
sNI321
stp25
Rp26
(dp27
g20
I390
sS'_max_cache'
p28
NsS'_item_cache'
p29
NsS'_Nr_cache'
p30
NsbsS'_bins'
p31
I2
sS'_divisor'
p32
F391.0
sbs(S'acc'
p33
S'keyword-count-8'
p34
tp35
g0
(g15
g2
Ntp36
Rp37
(dp38
g19
F0.5
sg20
I65
sg21
g0
(g22
g23
(dp39
I01
I2
sNI63
stp40
Rp41
(dp42
g20
I65
sg28
Nsg29
Nsg30
Nsbsg31
I2
sg32
F66.0
sbs(g9
S'author-mentioned'
p43
tp44
g0
(g15
g2
Ntp45
Rp46
(dp47
g19
F0.5
sg20
I65
sg21
g0
(g22
g23
(dp48
I01
I65
stp49
Rp50
(dp51
g20
I65
sg28
Nsg29
Nsg30
Nsbsg31
I2
sg32
F66.0
sbs(g8
S'author-thanked'
p52
tp53
g0
(g15
g2
Ntp54
Rp55
(dp56
g19
F0.5
sg20
I390
sg21
g0
(g22
g23
(dp57
I00
I381
sI01
I9
stp58
Rp59
(dp60
g20
I390
sg28
Nsg29
Nsg30
Nsbsg31
I3
sg32
F391.5
sbs(g8
g43
tp61
g0
(g15
g2
Ntp62
Rp63
(dp64
g19
F0.5
sg20
I390
sg21
g0
(g22
g23
(dp65
I01
I390
stp66
Rp67
(dp68
g20
I390
sg28
Nsg29
Nsg30
Nsbsg31
I2
sg32
F391.0
sbs(S'acc'
p69
S'keyword-count-1'
p70
tp71
g0
(g15
g2
Ntp72
Rp73
(dp74
g19
F0.5
sg20
I65
sg21
g0
(g22
g23
(dp75
I01
I41
sNI24
stp76
Rp77
(dp78
g20
I65
sg28
Nsg29
Nsg30
Nsbsg31
I2
sg32
F66.0
sbs(g9
g52
tp79
g0
(g15
g2
Ntp80
Rp81
(dp82
g19
F0.5
sg20
I65
sg21
g0
(g22
g23
(dp83
I00
I63
sI01
I2
stp84
Rp85
(dp86
g20
I65
sg28
Nsg29
Nsg30
Nsbsg31
I3
sg32
F66.5
sbs(g8
S'keyword-count-2'
p87
tp88
g0
(g15
g2
Ntp89
Rp90
(dp91
g19
F0.5
sg20
I390
sg21
g0
(g22
g23
(dp92
I01
I159
sNI231
stp93
Rp94
(dp95
g20
I390
sg28
Nsg29
Nsg30
Nsbsg31
I2
sg32
F391.0
sbs(g9
S'longer-than-op'
p96
tp97
g0
(g15
g2
Ntp98
Rp99
(dp100
g19
F0.5
sg20
I65
sg21
g0
(g22
g23
(dp101
I00
I19
sI01
I46
stp102
Rp103
(dp104
g20
I65
sg28
Nsg29
Nsg30
Nsbsg31
I3
sg32
F66.5
sbs(g8
g96
tp105
g0
(g15
g2
Ntp106
Rp107
(dp108
g19
F0.5
sg20
I390
sg21
g0
(g22
g23
(dp109
I00
I240
sI01
I150
stp110
Rp111
(dp112
g20
I390
sg28
Nsg29
Nsg30
Nsbsg31
I3
sg32
F391.5
sbs(S'acc'
p113
S'keyword-count-7'
p114
tp115
g0
(g15
g2
Ntp116
Rp117
(dp118
g19
F0.5
sg20
I65
sg21
g0
(g22
g23
(dp119
I01
I4
sNI61
stp120
Rp121
(dp122
g20
I65
sg28
Nsg29
Nsg30
Nsbsg31
I2
sg32
F66.0
sbs(g12
S'keyword-count-7'
p123
tp124
g0
(g15
g2
Ntp125
Rp126
(dp127
g19
F0.5
sg20
I390
sg21
g0
(g22
g23
(dp128
I01
I42
sNI348
stp129
Rp130
(dp131
g20
I390
sg28
Nsg29
Nsg30
Nsbsg31
I2
sg32
F391.0
sbs(g69
S'keyword-count-3'
p132
tp133
g0
(g15
g2
Ntp134
Rp135
(dp136
g19
F0.5
sg20
I65
sg21
g0
(g22
g23
(dp137
I01
I17
sNI48
stp138
Rp139
(dp140
g20
I65
sg28
Nsg29
Nsg30
Nsbsg31
I2
sg32
F66.0
sbs(g12
S'keyword-count-4'
p141
tp142
g0
(g15
g2
Ntp143
Rp144
(dp145
g19
F0.5
sg20
I390
sg21
g0
(g22
g23
(dp146
I01
I90
sNI300
stp147
Rp148
(dp149
g20
I390
sg28
Nsg29
Nsg30
Nsbsg31
I2
sg32
F391.0
sbs(S'acc'
p150
S'keyword-count-10'
p151
tp152
g0
(g15
g2
Ntp153
Rp154
(dp155
g19
F0.5
sg20
I65
sg21
g0
(g22
g23
(dp156
I01
I1
sNI64
stp157
Rp158
(dp159
g20
I65
sg28
Nsg29
Nsg30
Nsbsg31
I2
sg32
F66.0
sbs(g8
S'keyword-count-1'
p160
tp161
g0
(g15
g2
Ntp162
Rp163
(dp164
g19
F0.5
sg20
I390
sg21
g0
(g22
g23
(dp165
I01
I223
sNI167
stp166
Rp167
(dp168
g20
I390
sg28
Nsg29
Nsg30
Nsbsg31
I2
sg32
F391.0
sbs(g113
S'keyword-count-6'
p169
tp170
g0
(g15
g2
Ntp171
Rp172
(dp173
g19
F0.5
sg20
I65
sg21
g0
(g22
g23
(dp174
I01
I6
sNI59
stp175
Rp176
(dp177
g20
I65
sg28
Nsg29
Nsg30
Nsbsg31
I2
sg32
F66.0
sbs(g12
S'keyword-count-9'
p178
tp179
g0
(g15
g2
Ntp180
Rp181
(dp182
g19
F0.5
sg20
I390
sg21
g0
(g22
g23
(dp183
I01
I24
sNI366
stp184
Rp185
(dp186
g20
I390
sg28
Nsg29
Nsg30
Nsbsg31
I2
sg32
F391.0
sbs(g12
S'keyword-count-10'
p187
tp188
g0
(g15
g2
Ntp189
Rp190
(dp191
g19
F0.5
sg20
I390
sg21
g0
(g22
g23
(dp192
I01
I21
sNI369
stp193
Rp194
(dp195
g20
I390
sg28
Nsg29
Nsg30
Nsbsg31
I2
sg32
F391.0
sbs(g12
S'keyword-count-6'
p196
tp197
g0
(g15
g2
Ntp198
Rp199
(dp200
g19
F0.5
sg20
I390
sg21
g0
(g22
g23
(dp201
I01
I56
sNI334
stp202
Rp203
(dp204
g20
I390
sg28
Nsg29
Nsg30
Nsbsg31
I2
sg32
F391.0
sbs(g69
S'keyword-count-4'
p205
tp206
g0
(g15
g2
Ntp207
Rp208
(dp209
g19
F0.5
sg20
I65
sg21
g0
(g22
g23
(dp210
I01
I16
sNI49
stp211
Rp212
(dp213
g20
I65
sg28
Nsg29
Nsg30
Nsbsg31
I2
sg32
F66.0
sbs(g150
S'keyword-count-9'
p214
tp215
g0
(g15
g2
Ntp216
Rp217
(dp218
g19
F0.5
sg20
I65
sg21
g0
(g22
g23
(dp219
I01
I1
sNI64
stp220
Rp221
(dp222
g20
I65
sg28
Nsg29
Nsg30
Nsbsg31
I2
sg32
F66.0
sbs(g69
S'keyword-count-2'
p223
tp224
g0
(g15
g2
Ntp225
Rp226
(dp227
g19
F0.5
sg20
I65
sg21
g0
(g22
g23
(dp228
I01
I24
sNI41
stp229
Rp230
(dp231
g20
I65
sg28
Nsg29
Nsg30
Nsbsg31
I2
sg32
F66.0
sbs(g113
S'keyword-count-5'
p232
tp233
g0
(g15
g2
Ntp234
Rp235
(dp236
g19
F0.5
sg20
I65
sg21
g0
(g22
g23
(dp237
I01
I11
sNI54
stp238
Rp239
(dp240
g20
I65
sg28
Nsg29
Nsg30
Nsbsg31
I2
sg32
F66.0
sbs(g8
S'keyword-count-3'
p241
tp242
g0
(g15
g2
Ntp243
Rp244
(dp245
g19
F0.5
sg20
I390
sg21
g0
(g22
g23
(dp246
I01
I115
sNI275
stp247
Rp248
(dp249
g20
I390
sg28
Nsg29
Nsg30
Nsbsg31
I2
sg32
F391.0
sbs(g12
S'keyword-count-8'
p250
tp251
g0
(g15
g2
Ntp252
Rp253
(dp254
g19
F0.5
sg20
I390
sg21
g0
(g22
g23
(dp255
I01
I29
sNI361
stp256
Rp257
(dp258
g20
I390
sg28
Nsg29
Nsg30
Nsbsg31
I2
sg32
F391.0
sbssS'_label_probdist'
p259
g0
(g15
g2
Ntp260
Rp261
(dp262
g19
F0.5
sg20
I455
sg21
g0
(g22
g23
(dp263
g9
I65
sg8
I390
stp264
Rp265
(dp266
g20
I455
sg28
Nsg29
(lp267
(g8
I390
tp268
a(g9
I65
tp269
asg30
Nsbsg31
I2
sg32
F456.0
sbsbcwedt.features
featureset_sample
p270
tp271
.