(ccopy_reg
_reconstructor
p0
(cnltk.classify.naivebayes
NaiveBayesClassifier
p1
c__builtin__
object
p2
Ntp3
Rp4
(dp5
S'_labels'
p6
(lp7
S'nope'
p8
aS'acc'
p9
asS'_feature_probdist'
p10
(dp11
(S'nope'
p12
S'keyword-count-9'
p13
tp14
g0
(cnltk.probability
ELEProbDist
p15
g2
Ntp16
Rp17
(dp18
S'_gamma'
p19
F0.5
sS'_N'
p20
I390
sS'_freqdist'
p21
g0
(cnltk.probability
FreqDist
p22
c__builtin__
dict
p23
(dp24
I01
I24
sNI366
stp25
Rp26
(dp27
g20
I390
sS'_max_cache'
p28
NsS'_item_cache'
p29
NsS'_Nr_cache'
p30
NsbsS'_bins'
p31
I2
sS'_divisor'
p32
F391.0
sbs(g12
S'keyword-count-10'
p33
tp34
g0
(g15
g2
Ntp35
Rp36
(dp37
g19
F0.5
sg20
I390
sg21
g0
(g22
g23
(dp38
I01
I21
sNI369
stp39
Rp40
(dp41
g20
I390
sg28
Nsg29
Nsg30
Nsbsg31
I2
sg32
F391.0
sbs(g12
S'keyword-count-7'
p42
tp43
g0
(g15
g2
Ntp44
Rp45
(dp46
g19
F0.5
sg20
I390
sg21
g0
(g22
g23
(dp47
I01
I42
sNI348
stp48
Rp49
(dp50
g20
I390
sg28
Nsg29
Nsg30
Nsbsg31
I2
sg32
F391.0
sbs(g12
S'keyword-count-5'
p51
tp52
g0
(g15
g2
Ntp53
Rp54
(dp55
g19
F0.5
sg20
I390
sg21
g0
(g22
g23
(dp56
I01
I69
sNI321
stp57
Rp58
(dp59
g20
I390
sg28
Nsg29
Nsg30
Nsbsg31
I2
sg32
F391.0
sbs(g12
S'keyword-count-6'
p60
tp61
g0
(g15
g2
Ntp62
Rp63
(dp64
g19
F0.5
sg20
I390
sg21
g0
(g22
g23
(dp65
I01
I56
sNI334
stp66
Rp67
(dp68
g20
I390
sg28
Nsg29
Nsg30
Nsbsg31
I2
sg32
F391.0
sbs(g8
S'keyword-count-2'
p69
tp70
g0
(g15
g2
Ntp71
Rp72
(dp73
g19
F0.5
sg20
I390
sg21
g0
(g22
g23
(dp74
I01
I159
sNI231
stp75
Rp76
(dp77
g20
I390
sg28
Nsg29
Nsg30
Nsbsg31
I2
sg32
F391.0
sbs(S'acc'
p78
S'keyword-count-8'
p79
tp80
g0
(g15
g2
Ntp81
Rp82
(dp83
g19
F0.5
sg20
I65
sg21
g0
(g22
g23
(dp84
I01
I2
sNI63
stp85
Rp86
(dp87
g20
I65
sg28
Nsg29
Nsg30
Nsbsg31
I2
sg32
F66.0
sbs(S'acc'
p88
S'keyword-count-3'
p89
tp90
g0
(g15
g2
Ntp91
Rp92
(dp93
g19
F0.5
sg20
I65
sg21
g0
(g22
g23
(dp94
I01
I17
sNI48
stp95
Rp96
(dp97
g20
I65
sg28
Nsg29
Nsg30
Nsbsg31
I2
sg32
F66.0
sbs(g12
S'keyword-count-4'
p98
tp99
g0
(g15
g2
Ntp100
Rp101
(dp102
g19
F0.5
sg20
I390
sg21
g0
(g22
g23
(dp103
I01
I90
sNI300
stp104
Rp105
(dp106
g20
I390
sg28
Nsg29
Nsg30
Nsbsg31
I2
sg32
F391.0
sbs(S'acc'
p107
S'keyword-count-9'
p108
tp109
g0
(g15
g2
Ntp110
Rp111
(dp112
g19
F0.5
sg20
I65
sg21
g0
(g22
g23
(dp113
I01
I1
sNI64
stp114
Rp115
(dp116
g20
I65
sg28
Nsg29
Nsg30
Nsbsg31
I2
sg32
F66.0
sbs(g88
S'keyword-count-2'
p117
tp118
g0
(g15
g2
Ntp119
Rp120
(dp121
g19
F0.5
sg20
I65
sg21
g0
(g22
g23
(dp122
I01
I24
sNI41
stp123
Rp124
(dp125
g20
I65
sg28
Nsg29
Nsg30
Nsbsg31
I2
sg32
F66.0
sbs(g8
S'keyword-count-3'
p126
tp127
g0
(g15
g2
Ntp128
Rp129
(dp130
g19
F0.5
sg20
I390
sg21
g0
(g22
g23
(dp131
I01
I115
sNI275
stp132
Rp133
(dp134
g20
I390
sg28
Nsg29
Nsg30
Nsbsg31
I2
sg32
F391.0
sbs(g88
S'keyword-count-4'
p135
tp136
g0
(g15
g2
Ntp137
Rp138
(dp139
g19
F0.5
sg20
I65
sg21
g0
(g22
g23
(dp140
I01
I16
sNI49
stp141
Rp142
(dp143
g20
I65
sg28
Nsg29
Nsg30
Nsbsg31
I2
sg32
F66.0
sbs(g107
S'keyword-count-10'
p144
tp145
g0
(g15
g2
Ntp146
Rp147
(dp148
g19
F0.5
sg20
I65
sg21
g0
(g22
g23
(dp149
I01
I1
sNI64
stp150
Rp151
(dp152
g20
I65
sg28
Nsg29
Nsg30
Nsbsg31
I2
sg32
F66.0
sbs(g8
S'keyword-count-1'
p153
tp154
g0
(g15
g2
Ntp155
Rp156
(dp157
g19
F0.5
sg20
I390
sg21
g0
(g22
g23
(dp158
I01
I223
sNI167
stp159
Rp160
(dp161
g20
I390
sg28
Nsg29
Nsg30
Nsbsg31
I2
sg32
F391.0
sbs(S'acc'
p162
S'keyword-count-5'
p163
tp164
g0
(g15
g2
Ntp165
Rp166
(dp167
g19
F0.5
sg20
I65
sg21
g0
(g22
g23
(dp168
I01
I11
sNI54
stp169
Rp170
(dp171
g20
I65
sg28
Nsg29
Nsg30
Nsbsg31
I2
sg32
F66.0
sbs(g162
S'keyword-count-7'
p172
tp173
g0
(g15
g2
Ntp174
Rp175
(dp176
g19
F0.5
sg20
I65
sg21
g0
(g22
g23
(dp177
I01
I4
sNI61
stp178
Rp179
(dp180
g20
I65
sg28
Nsg29
Nsg30
Nsbsg31
I2
sg32
F66.0
sbs(g162
S'keyword-count-6'
p181
tp182
g0
(g15
g2
Ntp183
Rp184
(dp185
g19
F0.5
sg20
I65
sg21
g0
(g22
g23
(dp186
I01
I6
sNI59
stp187
Rp188
(dp189
g20
I65
sg28
Nsg29
Nsg30
Nsbsg31
I2
sg32
F66.0
sbs(g12
S'keyword-count-8'
p190
tp191
g0
(g15
g2
Ntp192
Rp193
(dp194
g19
F0.5
sg20
I390
sg21
g0
(g22
g23
(dp195
I01
I29
sNI361
stp196
Rp197
(dp198
g20
I390
sg28
Nsg29
Nsg30
Nsbsg31
I2
sg32
F391.0
sbs(g88
S'keyword-count-1'
p199
tp200
g0
(g15
g2
Ntp201
Rp202
(dp203
g19
F0.5
sg20
I65
sg21
g0
(g22
g23
(dp204
I01
I41
sNI24
stp205
Rp206
(dp207
g20
I65
sg28
Nsg29
Nsg30
Nsbsg31
I2
sg32
F66.0
sbssS'_label_probdist'
p208
g0
(g15
g2
Ntp209
Rp210
(dp211
g19
F0.5
sg20
I455
sg21
g0
(g22
g23
(dp212
g9
I65
sg8
I390
stp213
Rp214
(dp215
g20
I455
sg28
Nsg29
(lp216
(g8
I390
tp217
a(g9
I65
tp218
asg30
Nsbsg31
I2
sg32
F456.0
sbsbcwedt.features
keywords_from_op
p219
tp220
.