(ccopy_reg
_reconstructor
p0
(cnltk.classify.naivebayes
NaiveBayesClassifier
p1
c__builtin__
object
p2
Ntp3
Rp4
(dp5
S'_labels'
p6
(lp7
S'nope'
p8
aS'acc'
p9
asS'_feature_probdist'
p10
(dp11
(S'nope'
p12
S'keyword-count-5'
p13
tp14
g0
(cnltk.probability
ELEProbDist
p15
g2
Ntp16
Rp17
(dp18
S'_gamma'
p19
F0.5
sS'_N'
p20
I569
sS'_freqdist'
p21
g0
(cnltk.probability
FreqDist
p22
c__builtin__
dict
p23
(dp24
I01
I32
sNI537
stp25
Rp26
(dp27
g20
I569
sS'_max_cache'
p28
NsS'_item_cache'
p29
NsS'_Nr_cache'
p30
NsbsS'_bins'
p31
I2
sS'_divisor'
p32
F570.0
sbs(S'acc'
p33
S'keyword-count-8'
p34
tp35
g0
(g15
g2
Ntp36
Rp37
(dp38
g19
F0.5
sg20
I100
sg21
g0
(g22
g23
(dp39
I01
I1
sNI99
stp40
Rp41
(dp42
g20
I100
sg28
Nsg29
Nsg30
Nsbsg31
I2
sg32
F101.0
sbs(g9
S'author-mentioned'
p43
tp44
g0
(g15
g2
Ntp45
Rp46
(dp47
g19
F0.5
sg20
I100
sg21
g0
(g22
g23
(dp48
I01
I100
stp49
Rp50
(dp51
g20
I100
sg28
Nsg29
Nsg30
Nsbsg31
I2
sg32
F101.0
sbs(g8
S'author-thanked'
p52
tp53
g0
(g15
g2
Ntp54
Rp55
(dp56
g19
F0.5
sg20
I569
sg21
g0
(g22
g23
(dp57
I00
I566
sI01
I3
stp58
Rp59
(dp60
g20
I569
sg28
Nsg29
Nsg30
Nsbsg31
I3
sg32
F570.5
sbs(g8
g43
tp61
g0
(g15
g2
Ntp62
Rp63
(dp64
g19
F0.5
sg20
I569
sg21
g0
(g22
g23
(dp65
I01
I569
stp66
Rp67
(dp68
g20
I569
sg28
Nsg29
Nsg30
Nsbsg31
I2
sg32
F570.0
sbs(S'acc'
p69
S'keyword-count-1'
p70
tp71
g0
(g15
g2
Ntp72
Rp73
(dp74
g19
F0.5
sg20
I100
sg21
g0
(g22
g23
(dp75
I01
I45
sNI55
stp76
Rp77
(dp78
g20
I100
sg28
Nsg29
Nsg30
Nsbsg31
I2
sg32
F101.0
sbs(g9
g52
tp79
g0
(g15
g2
Ntp80
Rp81
(dp82
g19
F0.5
sg20
I100
sg21
g0
(g22
g23
(dp83
I00
I99
sI01
I1
stp84
Rp85
(dp86
g20
I100
sg28
Nsg29
Nsg30
Nsbsg31
I3
sg32
F101.5
sbs(g33
S'keyword-count-6'
p87
tp88
g0
(g15
g2
Ntp89
Rp90
(dp91
g19
F0.5
sg20
I100
sg21
g0
(g22
g23
(dp92
I01
I1
sNI99
stp93
Rp94
(dp95
g20
I100
sg28
Nsg29
Nsg30
Nsbsg31
I2
sg32
F101.0
sbs(g9
S'longer-than-op'
p96
tp97
g0
(g15
g2
Ntp98
Rp99
(dp100
g19
F0.5
sg20
I100
sg21
g0
(g22
g23
(dp101
I00
I35
sI01
I65
stp102
Rp103
(dp104
g20
I100
sg28
Nsg29
Nsg30
Nsbsg31
I3
sg32
F101.5
sbs(g8
g96
tp105
g0
(g15
g2
Ntp106
Rp107
(dp108
g19
F0.5
sg20
I569
sg21
g0
(g22
g23
(dp109
I00
I339
sI01
I230
stp110
Rp111
(dp112
g20
I569
sg28
Nsg29
Nsg30
Nsbsg31
I3
sg32
F570.5
sbs(g8
S'keyword-count-3'
p113
tp114
g0
(g15
g2
Ntp115
Rp116
(dp117
g19
F0.5
sg20
I569
sg21
g0
(g22
g23
(dp118
I01
I73
sNI496
stp119
Rp120
(dp121
g20
I569
sg28
Nsg29
Nsg30
Nsbsg31
I2
sg32
F570.0
sbs(S'nope'
p122
S'keyword-count-7'
p123
tp124
g0
(g15
g2
Ntp125
Rp126
(dp127
g19
F0.5
sg20
I569
sg21
g0
(g22
g23
(dp128
I01
I20
sNI549
stp129
Rp130
(dp131
g20
I569
sg28
Nsg29
Nsg30
Nsbsg31
I2
sg32
F570.0
sbs(S'acc'
p132
S'keyword-count-3'
p133
tp134
g0
(g15
g2
Ntp135
Rp136
(dp137
g19
F0.5
sg20
I100
sg21
g0
(g22
g23
(dp138
I01
I6
sNI94
stp139
Rp140
(dp141
g20
I100
sg28
Nsg29
Nsg30
Nsbsg31
I2
sg32
F101.0
sbs(g12
S'keyword-count-4'
p142
tp143
g0
(g15
g2
Ntp144
Rp145
(dp146
g19
F0.5
sg20
I569
sg21
g0
(g22
g23
(dp147
I01
I46
sNI523
stp148
Rp149
(dp150
g20
I569
sg28
Nsg29
Nsg30
Nsbsg31
I2
sg32
F570.0
sbs(g33
S'keyword-count-10'
p151
tp152
g0
(g15
g2
Ntp153
Rp154
(dp155
g19
F0.5
sg20
I100
sg21
g0
(g22
g23
(dp156
I01
I1
sNI99
stp157
Rp158
(dp159
g20
I100
sg28
Nsg29
Nsg30
Nsbsg31
I2
sg32
F101.0
sbs(g8
S'keyword-count-1'
p160
tp161
g0
(g15
g2
Ntp162
Rp163
(dp164
g19
F0.5
sg20
I569
sg21
g0
(g22
g23
(dp165
I01
I256
sNI313
stp166
Rp167
(dp168
g20
I569
sg28
Nsg29
Nsg30
Nsbsg31
I2
sg32
F570.0
sbs(g8
S'keyword-count-2'
p169
tp170
g0
(g15
g2
Ntp171
Rp172
(dp173
g19
F0.5
sg20
I569
sg21
g0
(g22
g23
(dp174
I01
I119
sNI450
stp175
Rp176
(dp177
g20
I569
sg28
Nsg29
Nsg30
Nsbsg31
I2
sg32
F570.0
sbs(g122
S'keyword-count-9'
p178
tp179
g0
(g15
g2
Ntp180
Rp181
(dp182
g19
F0.5
sg20
I569
sg21
g0
(g22
g23
(dp183
I01
I15
sNI554
stp184
Rp185
(dp186
g20
I569
sg28
Nsg29
Nsg30
Nsbsg31
I2
sg32
F570.0
sbs(g122
S'keyword-count-10'
p187
tp188
g0
(g15
g2
Ntp189
Rp190
(dp191
g19
F0.5
sg20
I569
sg21
g0
(g22
g23
(dp192
I01
I15
sNI554
stp193
Rp194
(dp195
g20
I569
sg28
Nsg29
Nsg30
Nsbsg31
I2
sg32
F570.0
sbs(g69
S'keyword-count-2'
p196
tp197
g0
(g15
g2
Ntp198
Rp199
(dp200
g19
F0.5
sg20
I100
sg21
g0
(g22
g23
(dp201
I01
I18
sNI82
stp202
Rp203
(dp204
g20
I100
sg28
Nsg29
Nsg30
Nsbsg31
I2
sg32
F101.0
sbs(S'acc'
p205
S'keyword-count-4'
p206
tp207
g0
(g15
g2
Ntp208
Rp209
(dp210
g19
F0.5
sg20
I100
sg21
g0
(g22
g23
(dp211
I01
I3
sNI97
stp212
Rp213
(dp214
g20
I100
sg28
Nsg29
Nsg30
Nsbsg31
I2
sg32
F101.0
sbs(g33
S'keyword-count-9'
p215
tp216
g0
(g15
g2
Ntp217
Rp218
(dp219
g19
F0.5
sg20
I100
sg21
g0
(g22
g23
(dp220
I01
I1
sNI99
stp221
Rp222
(dp223
g20
I100
sg28
Nsg29
Nsg30
Nsbsg31
I2
sg32
F101.0
sbs(g122
S'keyword-count-6'
p224
tp225
g0
(g15
g2
Ntp226
Rp227
(dp228
g19
F0.5
sg20
I569
sg21
g0
(g22
g23
(dp229
I01
I26
sNI543
stp230
Rp231
(dp232
g20
I569
sg28
Nsg29
Nsg30
Nsbsg31
I2
sg32
F570.0
sbs(g33
S'keyword-count-5'
p233
tp234
g0
(g15
g2
Ntp235
Rp236
(dp237
g19
F0.5
sg20
I100
sg21
g0
(g22
g23
(dp238
I01
I1
sNI99
stp239
Rp240
(dp241
g20
I100
sg28
Nsg29
Nsg30
Nsbsg31
I2
sg32
F101.0
sbs(g33
S'keyword-count-7'
p242
tp243
g0
(g15
g2
Ntp244
Rp245
(dp246
g19
F0.5
sg20
I100
sg21
g0
(g22
g23
(dp247
I01
I1
sNI99
stp248
Rp249
(dp250
g20
I100
sg28
Nsg29
Nsg30
Nsbsg31
I2
sg32
F101.0
sbs(g122
S'keyword-count-8'
p251
tp252
g0
(g15
g2
Ntp253
Rp254
(dp255
g19
F0.5
sg20
I569
sg21
g0
(g22
g23
(dp256
I01
I15
sNI554
stp257
Rp258
(dp259
g20
I569
sg28
Nsg29
Nsg30
Nsbsg31
I2
sg32
F570.0
sbssS'_label_probdist'
p260
g0
(g15
g2
Ntp261
Rp262
(dp263
g19
F0.5
sg20
I669
sg21
g0
(g22
g23
(dp264
g9
I100
sg8
I569
stp265
Rp266
(dp267
g20
I669
sg28
Nsg29
(lp268
(g8
I569
tp269
a(g9
I100
tp270
asg30
Nsbsg31
I2
sg32
F670.0
sbsbcwedt.features
featureset_sample
p271
tp272
.