(ccopy_reg
_reconstructor
p0
(cnltk.classify.naivebayes
NaiveBayesClassifier
p1
c__builtin__
object
p2
Ntp3
Rp4
(dp5
S'_labels'
p6
(lp7
S'nope'
p8
aS'acc'
p9
asS'_feature_probdist'
p10
(dp11
(g9
S'keyword-count-1'
p12
tp13
g0
(cnltk.probability
ELEProbDist
p14
g2
Ntp15
Rp16
(dp17
S'_gamma'
p18
F0.5
sS'_N'
p19
I99
sS'_freqdist'
p20
g0
(cnltk.probability
FreqDist
p21
c__builtin__
dict
p22
(dp23
I01
I69
sNI30
stp24
Rp25
(dp26
g19
I99
sS'_max_cache'
p27
NsS'_item_cache'
p28
NsS'_Nr_cache'
p29
NsbsS'_bins'
p30
I2
sS'_divisor'
p31
F100.0
sbs(S'acc'
p32
S'keyword-count-8'
p33
tp34
g0
(g14
g2
Ntp35
Rp36
(dp37
g18
F0.5
sg19
I99
sg20
g0
(g21
g22
(dp38
I01
I3
sNI96
stp39
Rp40
(dp41
g19
I99
sg27
Nsg28
Nsg29
Nsbsg30
I2
sg31
F100.0
sbs(g9
S'author-mentioned'
p42
tp43
g0
(g14
g2
Ntp44
Rp45
(dp46
g18
F0.5
sg19
I99
sg20
g0
(g21
g22
(dp47
I01
I99
stp48
Rp49
(dp50
g19
I99
sg27
Nsg28
Nsg29
Nsbsg30
I2
sg31
F100.0
sbs(g8
S'author-thanked'
p51
tp52
g0
(g14
g2
Ntp53
Rp54
(dp55
g18
F0.5
sg19
I948
sg20
g0
(g21
g22
(dp56
I00
I907
sI01
I41
stp57
Rp58
(dp59
g19
I948
sg27
Nsg28
Nsg29
Nsbsg30
I3
sg31
F949.5
sbs(g8
g42
tp60
g0
(g14
g2
Ntp61
Rp62
(dp63
g18
F0.5
sg19
I948
sg20
g0
(g21
g22
(dp64
I01
I948
stp65
Rp66
(dp67
g19
I948
sg27
Nsg28
Nsg29
Nsbsg30
I2
sg31
F949.0
sbs(S'nope'
p68
S'keyword-count-5'
p69
tp70
g0
(g14
g2
Ntp71
Rp72
(dp73
g18
F0.5
sg19
I948
sg20
g0
(g21
g22
(dp74
I01
I44
sNI904
stp75
Rp76
(dp77
g19
I948
sg27
Nsg28
Nsg29
Nsbsg30
I2
sg31
F949.0
sbs(g9
g51
tp78
g0
(g14
g2
Ntp79
Rp80
(dp81
g18
F0.5
sg19
I99
sg20
g0
(g21
g22
(dp82
I00
I95
sI01
I4
stp83
Rp84
(dp85
g19
I99
sg27
Nsg28
Nsg29
Nsbsg30
I3
sg31
F100.5
sbs(S'nope'
p86
S'keyword-count-2'
p87
tp88
g0
(g14
g2
Ntp89
Rp90
(dp91
g18
F0.5
sg19
I948
sg20
g0
(g21
g22
(dp92
I01
I209
sNI739
stp93
Rp94
(dp95
g19
I948
sg27
Nsg28
Nsg29
Nsbsg30
I2
sg31
F949.0
sbs(g9
S'longer-than-op'
p96
tp97
g0
(g14
g2
Ntp98
Rp99
(dp100
g18
F0.5
sg19
I99
sg20
g0
(g21
g22
(dp101
I00
I18
sI01
I81
stp102
Rp103
(dp104
g19
I99
sg27
Nsg28
Nsg29
Nsbsg30
I3
sg31
F100.5
sbs(g8
g96
tp105
g0
(g14
g2
Ntp106
Rp107
(dp108
g18
F0.5
sg19
I948
sg20
g0
(g21
g22
(dp109
I00
I398
sI01
I550
stp110
Rp111
(dp112
g19
I948
sg27
Nsg28
Nsg29
Nsbsg30
I3
sg31
F949.5
sbs(g68
S'keyword-count-3'
p113
tp114
g0
(g14
g2
Ntp115
Rp116
(dp117
g18
F0.5
sg19
I948
sg20
g0
(g21
g22
(dp118
I01
I105
sNI843
stp119
Rp120
(dp121
g19
I948
sg27
Nsg28
Nsg29
Nsbsg30
I2
sg31
F949.0
sbs(g68
S'keyword-count-7'
p122
tp123
g0
(g14
g2
Ntp124
Rp125
(dp126
g18
F0.5
sg19
I948
sg20
g0
(g21
g22
(dp127
I01
I23
sNI925
stp128
Rp129
(dp130
g19
I948
sg27
Nsg28
Nsg29
Nsbsg30
I2
sg31
F949.0
sbs(S'acc'
p131
S'keyword-count-3'
p132
tp133
g0
(g14
g2
Ntp134
Rp135
(dp136
g18
F0.5
sg19
I99
sg20
g0
(g21
g22
(dp137
I01
I20
sNI79
stp138
Rp139
(dp140
g19
I99
sg27
Nsg28
Nsg29
Nsbsg30
I2
sg31
F100.0
sbs(g68
S'keyword-count-4'
p141
tp142
g0
(g14
g2
Ntp143
Rp144
(dp145
g18
F0.5
sg19
I948
sg20
g0
(g21
g22
(dp146
I01
I59
sNI889
stp147
Rp148
(dp149
g19
I948
sg27
Nsg28
Nsg29
Nsbsg30
I2
sg31
F949.0
sbs(S'acc'
p150
S'keyword-count-10'
p151
tp152
g0
(g14
g2
Ntp153
Rp154
(dp155
g18
F0.5
sg19
I99
sg20
g0
(g21
g22
(dp156
I01
I1
sNI98
stp157
Rp158
(dp159
g19
I99
sg27
Nsg28
Nsg29
Nsbsg30
I2
sg31
F100.0
sbs(S'acc'
p160
S'keyword-count-5'
p161
tp162
g0
(g14
g2
Ntp163
Rp164
(dp165
g18
F0.5
sg19
I99
sg20
g0
(g21
g22
(dp166
I01
I9
sNI90
stp167
Rp168
(dp169
g19
I99
sg27
Nsg28
Nsg29
Nsbsg30
I2
sg31
F100.0
sbs(g160
S'keyword-count-6'
p170
tp171
g0
(g14
g2
Ntp172
Rp173
(dp174
g18
F0.5
sg19
I99
sg20
g0
(g21
g22
(dp175
I01
I5
sNI94
stp176
Rp177
(dp178
g19
I99
sg27
Nsg28
Nsg29
Nsbsg30
I2
sg31
F100.0
sbs(g68
S'keyword-count-9'
p179
tp180
g0
(g14
g2
Ntp181
Rp182
(dp183
g18
F0.5
sg19
I948
sg20
g0
(g21
g22
(dp184
I01
I15
sNI933
stp185
Rp186
(dp187
g19
I948
sg27
Nsg28
Nsg29
Nsbsg30
I2
sg31
F949.0
sbs(g68
S'keyword-count-10'
p188
tp189
g0
(g14
g2
Ntp190
Rp191
(dp192
g18
F0.5
sg19
I948
sg20
g0
(g21
g22
(dp193
I01
I12
sNI936
stp194
Rp195
(dp196
g19
I948
sg27
Nsg28
Nsg29
Nsbsg30
I2
sg31
F949.0
sbs(g68
S'keyword-count-6'
p197
tp198
g0
(g14
g2
Ntp199
Rp200
(dp201
g18
F0.5
sg19
I948
sg20
g0
(g21
g22
(dp202
I01
I31
sNI917
stp203
Rp204
(dp205
g19
I948
sg27
Nsg28
Nsg29
Nsbsg30
I2
sg31
F949.0
sbs(g160
S'keyword-count-4'
p206
tp207
g0
(g14
g2
Ntp208
Rp209
(dp210
g18
F0.5
sg19
I99
sg20
g0
(g21
g22
(dp211
I01
I9
sNI90
stp212
Rp213
(dp214
g19
I99
sg27
Nsg28
Nsg29
Nsbsg30
I2
sg31
F100.0
sbs(g150
S'keyword-count-9'
p215
tp216
g0
(g14
g2
Ntp217
Rp218
(dp219
g18
F0.5
sg19
I99
sg20
g0
(g21
g22
(dp220
I01
I1
sNI98
stp221
Rp222
(dp223
g19
I99
sg27
Nsg28
Nsg29
Nsbsg30
I2
sg31
F100.0
sbs(g131
S'keyword-count-2'
p224
tp225
g0
(g14
g2
Ntp226
Rp227
(dp228
g18
F0.5
sg19
I99
sg20
g0
(g21
g22
(dp229
I01
I33
sNI66
stp230
Rp231
(dp232
g19
I99
sg27
Nsg28
Nsg29
Nsbsg30
I2
sg31
F100.0
sbs(g8
S'keyword-count-1'
p233
tp234
g0
(g14
g2
Ntp235
Rp236
(dp237
g18
F0.5
sg19
I948
sg20
g0
(g21
g22
(dp238
I01
I482
sNI466
stp239
Rp240
(dp241
g19
I948
sg27
Nsg28
Nsg29
Nsbsg30
I2
sg31
F949.0
sbs(S'acc'
p242
S'keyword-count-7'
p243
tp244
g0
(g14
g2
Ntp245
Rp246
(dp247
g18
F0.5
sg19
I99
sg20
g0
(g21
g22
(dp248
I01
I4
sNI95
stp249
Rp250
(dp251
g19
I99
sg27
Nsg28
Nsg29
Nsbsg30
I2
sg31
F100.0
sbs(g68
S'keyword-count-8'
p252
tp253
g0
(g14
g2
Ntp254
Rp255
(dp256
g18
F0.5
sg19
I948
sg20
g0
(g21
g22
(dp257
I01
I20
sNI928
stp258
Rp259
(dp260
g19
I948
sg27
Nsg28
Nsg29
Nsbsg30
I2
sg31
F949.0
sbssS'_label_probdist'
p261
g0
(g14
g2
Ntp262
Rp263
(dp264
g18
F0.5
sg19
I1047
sg20
g0
(g21
g22
(dp265
g9
I99
sg8
I948
stp266
Rp267
(dp268
g19
I1047
sg27
Nsg28
(lp269
(g8
I948
tp270
a(g9
I99
tp271
asg29
Nsbsg30
I2
sg31
F1048.0
sbsbcwedt.features
featureset_sample
p272
tp273
.