(ccopy_reg
_reconstructor
p0
(cnltk.classify.naivebayes
NaiveBayesClassifier
p1
c__builtin__
object
p2
Ntp3
Rp4
(dp5
S'_labels'
p6
(lp7
S'nope'
p8
aS'acc'
p9
asS'_feature_probdist'
p10
(dp11
(g8
S'keyword-count-9'
p12
tp13
g0
(cnltk.probability
ELEProbDist
p14
g2
Ntp15
Rp16
(dp17
S'_gamma'
p18
F0.5
sS'_N'
p19
I389
sS'_freqdist'
p20
g0
(cnltk.probability
FreqDist
p21
c__builtin__
dict
p22
(dp23
I01
I24
sNI365
stp24
Rp25
(dp26
g19
I389
sS'_max_cache'
p27
NsS'_item_cache'
p28
NsS'_Nr_cache'
p29
NsbsS'_bins'
p30
I2
sS'_divisor'
p31
F390.0
sbs(g8
S'keyword-count-10'
p32
tp33
g0
(g14
g2
Ntp34
Rp35
(dp36
g18
F0.5
sg19
I389
sg20
g0
(g21
g22
(dp37
I01
I21
sNI368
stp38
Rp39
(dp40
g19
I389
sg27
Nsg28
Nsg29
Nsbsg30
I2
sg31
F390.0
sbs(g8
S'keyword-count-7'
p41
tp42
g0
(g14
g2
Ntp43
Rp44
(dp45
g18
F0.5
sg19
I389
sg20
g0
(g21
g22
(dp46
I01
I42
sNI347
stp47
Rp48
(dp49
g19
I389
sg27
Nsg28
Nsg29
Nsbsg30
I2
sg31
F390.0
sbs(g8
S'keyword-count-5'
p50
tp51
g0
(g14
g2
Ntp52
Rp53
(dp54
g18
F0.5
sg19
I389
sg20
g0
(g21
g22
(dp55
I01
I69
sNI320
stp56
Rp57
(dp58
g19
I389
sg27
Nsg28
Nsg29
Nsbsg30
I2
sg31
F390.0
sbs(g8
S'keyword-count-6'
p59
tp60
g0
(g14
g2
Ntp61
Rp62
(dp63
g18
F0.5
sg19
I389
sg20
g0
(g21
g22
(dp64
I01
I56
sNI333
stp65
Rp66
(dp67
g19
I389
sg27
Nsg28
Nsg29
Nsbsg30
I2
sg31
F390.0
sbs(g8
S'keyword-count-2'
p68
tp69
g0
(g14
g2
Ntp70
Rp71
(dp72
g18
F0.5
sg19
I389
sg20
g0
(g21
g22
(dp73
I01
I156
sNI233
stp74
Rp75
(dp76
g19
I389
sg27
Nsg28
Nsg29
Nsbsg30
I2
sg31
F390.0
sbs(S'acc'
p77
S'keyword-count-8'
p78
tp79
g0
(g14
g2
Ntp80
Rp81
(dp82
g18
F0.5
sg19
I66
sg20
g0
(g21
g22
(dp83
I01
I2
sNI64
stp84
Rp85
(dp86
g19
I66
sg27
Nsg28
Nsg29
Nsbsg30
I2
sg31
F67.0
sbs(g9
S'keyword-count-3'
p87
tp88
g0
(g14
g2
Ntp89
Rp90
(dp91
g18
F0.5
sg19
I66
sg20
g0
(g21
g22
(dp92
I01
I17
sNI49
stp93
Rp94
(dp95
g19
I66
sg27
Nsg28
Nsg29
Nsbsg30
I2
sg31
F67.0
sbs(g8
S'keyword-count-4'
p96
tp97
g0
(g14
g2
Ntp98
Rp99
(dp100
g18
F0.5
sg19
I389
sg20
g0
(g21
g22
(dp101
I01
I91
sNI298
stp102
Rp103
(dp104
g19
I389
sg27
Nsg28
Nsg29
Nsbsg30
I2
sg31
F390.0
sbs(S'acc'
p105
S'keyword-count-9'
p106
tp107
g0
(g14
g2
Ntp108
Rp109
(dp110
g18
F0.5
sg19
I66
sg20
g0
(g21
g22
(dp111
I01
I1
sNI65
stp112
Rp113
(dp114
g19
I66
sg27
Nsg28
Nsg29
Nsbsg30
I2
sg31
F67.0
sbs(g9
S'keyword-count-2'
p115
tp116
g0
(g14
g2
Ntp117
Rp118
(dp119
g18
F0.5
sg19
I66
sg20
g0
(g21
g22
(dp120
I01
I25
sNI41
stp121
Rp122
(dp123
g19
I66
sg27
Nsg28
Nsg29
Nsbsg30
I2
sg31
F67.0
sbs(g8
S'keyword-count-3'
p124
tp125
g0
(g14
g2
Ntp126
Rp127
(dp128
g18
F0.5
sg19
I389
sg20
g0
(g21
g22
(dp129
I01
I115
sNI274
stp130
Rp131
(dp132
g19
I389
sg27
Nsg28
Nsg29
Nsbsg30
I2
sg31
F390.0
sbs(g9
S'keyword-count-4'
p133
tp134
g0
(g14
g2
Ntp135
Rp136
(dp137
g18
F0.5
sg19
I66
sg20
g0
(g21
g22
(dp138
I01
I16
sNI50
stp139
Rp140
(dp141
g19
I66
sg27
Nsg28
Nsg29
Nsbsg30
I2
sg31
F67.0
sbs(g105
S'keyword-count-10'
p142
tp143
g0
(g14
g2
Ntp144
Rp145
(dp146
g18
F0.5
sg19
I66
sg20
g0
(g21
g22
(dp147
I01
I1
sNI65
stp148
Rp149
(dp150
g19
I66
sg27
Nsg28
Nsg29
Nsbsg30
I2
sg31
F67.0
sbs(g8
S'keyword-count-1'
p151
tp152
g0
(g14
g2
Ntp153
Rp154
(dp155
g18
F0.5
sg19
I389
sg20
g0
(g21
g22
(dp156
I01
I219
sNI170
stp157
Rp158
(dp159
g19
I389
sg27
Nsg28
Nsg29
Nsbsg30
I2
sg31
F390.0
sbs(S'acc'
p160
S'keyword-count-5'
p161
tp162
g0
(g14
g2
Ntp163
Rp164
(dp165
g18
F0.5
sg19
I66
sg20
g0
(g21
g22
(dp166
I01
I11
sNI55
stp167
Rp168
(dp169
g19
I66
sg27
Nsg28
Nsg29
Nsbsg30
I2
sg31
F67.0
sbs(S'acc'
p170
S'keyword-count-7'
p171
tp172
g0
(g14
g2
Ntp173
Rp174
(dp175
g18
F0.5
sg19
I66
sg20
g0
(g21
g22
(dp176
I01
I4
sNI62
stp177
Rp178
(dp179
g19
I66
sg27
Nsg28
Nsg29
Nsbsg30
I2
sg31
F67.0
sbs(g170
S'keyword-count-6'
p180
tp181
g0
(g14
g2
Ntp182
Rp183
(dp184
g18
F0.5
sg19
I66
sg20
g0
(g21
g22
(dp185
I01
I6
sNI60
stp186
Rp187
(dp188
g19
I66
sg27
Nsg28
Nsg29
Nsbsg30
I2
sg31
F67.0
sbs(g8
S'keyword-count-8'
p189
tp190
g0
(g14
g2
Ntp191
Rp192
(dp193
g18
F0.5
sg19
I389
sg20
g0
(g21
g22
(dp194
I01
I29
sNI360
stp195
Rp196
(dp197
g19
I389
sg27
Nsg28
Nsg29
Nsbsg30
I2
sg31
F390.0
sbs(g9
S'keyword-count-1'
p198
tp199
g0
(g14
g2
Ntp200
Rp201
(dp202
g18
F0.5
sg19
I66
sg20
g0
(g21
g22
(dp203
I01
I41
sNI25
stp204
Rp205
(dp206
g19
I66
sg27
Nsg28
Nsg29
Nsbsg30
I2
sg31
F67.0
sbssS'_label_probdist'
p207
g0
(g14
g2
Ntp208
Rp209
(dp210
g18
F0.5
sg19
I455
sg20
g0
(g21
g22
(dp211
g9
I66
sg8
I389
stp212
Rp213
(dp214
g19
I455
sg27
Nsg28
(lp215
(g8
I389
tp216
a(g9
I66
tp217
asg29
Nsbsg30
I2
sg31
F456.0
sbsbcwedt.features
keywords_from_op
p218
tp219
.