(ccopy_reg
_reconstructor
p0
(cnltk.classify.naivebayes
NaiveBayesClassifier
p1
c__builtin__
object
p2
Ntp3
Rp4
(dp5
S'_labels'
p6
(lp7
S'nope'
p8
aS'acc'
p9
asS'_feature_probdist'
p10
(dp11
(g8
S'keyword-count-5'
p12
tp13
g0
(cnltk.probability
ELEProbDist
p14
g2
Ntp15
Rp16
(dp17
S'_gamma'
p18
F0.5
sS'_N'
p19
I389
sS'_freqdist'
p20
g0
(cnltk.probability
FreqDist
p21
c__builtin__
dict
p22
(dp23
I01
I69
sNI320
stp24
Rp25
(dp26
g19
I389
sS'_max_cache'
p27
NsS'_item_cache'
p28
NsS'_Nr_cache'
p29
NsbsS'_bins'
p30
I2
sS'_divisor'
p31
F390.0
sbs(S'acc'
p32
S'keyword-count-8'
p33
tp34
g0
(g14
g2
Ntp35
Rp36
(dp37
g18
F0.5
sg19
I66
sg20
g0
(g21
g22
(dp38
I01
I2
sNI64
stp39
Rp40
(dp41
g19
I66
sg27
Nsg28
Nsg29
Nsbsg30
I2
sg31
F67.0
sbs(g9
S'author-mentioned'
p42
tp43
g0
(g14
g2
Ntp44
Rp45
(dp46
g18
F0.5
sg19
I66
sg20
g0
(g21
g22
(dp47
I01
I66
stp48
Rp49
(dp50
g19
I66
sg27
Nsg28
Nsg29
Nsbsg30
I2
sg31
F67.0
sbs(g8
S'author-thanked'
p51
tp52
g0
(g14
g2
Ntp53
Rp54
(dp55
g18
F0.5
sg19
I389
sg20
g0
(g21
g22
(dp56
I00
I359
sI01
I30
stp57
Rp58
(dp59
g19
I389
sg27
Nsg28
Nsg29
Nsbsg30
I3
sg31
F390.5
sbs(g8
g42
tp60
g0
(g14
g2
Ntp61
Rp62
(dp63
g18
F0.5
sg19
I389
sg20
g0
(g21
g22
(dp64
I01
I389
stp65
Rp66
(dp67
g19
I389
sg27
Nsg28
Nsg29
Nsbsg30
I2
sg31
F390.0
sbs(g9
S'keyword-count-1'
p68
tp69
g0
(g14
g2
Ntp70
Rp71
(dp72
g18
F0.5
sg19
I66
sg20
g0
(g21
g22
(dp73
I01
I41
sNI25
stp74
Rp75
(dp76
g19
I66
sg27
Nsg28
Nsg29
Nsbsg30
I2
sg31
F67.0
sbs(g8
S'keyword-count-4'
p77
tp78
g0
(g14
g2
Ntp79
Rp80
(dp81
g18
F0.5
sg19
I389
sg20
g0
(g21
g22
(dp82
I01
I91
sNI298
stp83
Rp84
(dp85
g19
I389
sg27
Nsg28
Nsg29
Nsbsg30
I2
sg31
F390.0
sbs(S'acc'
p86
S'keyword-count-6'
p87
tp88
g0
(g14
g2
Ntp89
Rp90
(dp91
g18
F0.5
sg19
I66
sg20
g0
(g21
g22
(dp92
I01
I6
sNI60
stp93
Rp94
(dp95
g19
I66
sg27
Nsg28
Nsg29
Nsbsg30
I2
sg31
F67.0
sbs(g9
S'longer-than-op'
p96
tp97
g0
(g14
g2
Ntp98
Rp99
(dp100
g18
F0.5
sg19
I66
sg20
g0
(g21
g22
(dp101
I00
I19
sI01
I47
stp102
Rp103
(dp104
g19
I66
sg27
Nsg28
Nsg29
Nsbsg30
I3
sg31
F67.5
sbs(g8
g96
tp105
g0
(g14
g2
Ntp106
Rp107
(dp108
g18
F0.5
sg19
I389
sg20
g0
(g21
g22
(dp109
I00
I239
sI01
I150
stp110
Rp111
(dp112
g19
I389
sg27
Nsg28
Nsg29
Nsbsg30
I3
sg31
F390.5
sbs(g86
S'keyword-count-7'
p113
tp114
g0
(g14
g2
Ntp115
Rp116
(dp117
g18
F0.5
sg19
I66
sg20
g0
(g21
g22
(dp118
I01
I4
sNI62
stp119
Rp120
(dp121
g19
I66
sg27
Nsg28
Nsg29
Nsbsg30
I2
sg31
F67.0
sbs(g8
S'keyword-count-7'
p122
tp123
g0
(g14
g2
Ntp124
Rp125
(dp126
g18
F0.5
sg19
I389
sg20
g0
(g21
g22
(dp127
I01
I42
sNI347
stp128
Rp129
(dp130
g19
I389
sg27
Nsg28
Nsg29
Nsbsg30
I2
sg31
F390.0
sbs(g9
S'keyword-count-3'
p131
tp132
g0
(g14
g2
Ntp133
Rp134
(dp135
g18
F0.5
sg19
I66
sg20
g0
(g21
g22
(dp136
I01
I17
sNI49
stp137
Rp138
(dp139
g19
I66
sg27
Nsg28
Nsg29
Nsbsg30
I2
sg31
F67.0
sbs(g9
g51
tp140
g0
(g14
g2
Ntp141
Rp142
(dp143
g18
F0.5
sg19
I66
sg20
g0
(g21
g22
(dp144
I00
I61
sI01
I5
stp145
Rp146
(dp147
g19
I66
sg27
Nsg28
Nsg29
Nsbsg30
I3
sg31
F67.5
sbs(S'acc'
p148
S'keyword-count-10'
p149
tp150
g0
(g14
g2
Ntp151
Rp152
(dp153
g18
F0.5
sg19
I66
sg20
g0
(g21
g22
(dp154
I01
I1
sNI65
stp155
Rp156
(dp157
g19
I66
sg27
Nsg28
Nsg29
Nsbsg30
I2
sg31
F67.0
sbs(g8
S'keyword-count-1'
p158
tp159
g0
(g14
g2
Ntp160
Rp161
(dp162
g18
F0.5
sg19
I389
sg20
g0
(g21
g22
(dp163
I01
I219
sNI170
stp164
Rp165
(dp166
g19
I389
sg27
Nsg28
Nsg29
Nsbsg30
I2
sg31
F390.0
sbs(g8
S'keyword-count-2'
p167
tp168
g0
(g14
g2
Ntp169
Rp170
(dp171
g18
F0.5
sg19
I389
sg20
g0
(g21
g22
(dp172
I01
I156
sNI233
stp173
Rp174
(dp175
g19
I389
sg27
Nsg28
Nsg29
Nsbsg30
I2
sg31
F390.0
sbs(g8
S'keyword-count-9'
p176
tp177
g0
(g14
g2
Ntp178
Rp179
(dp180
g18
F0.5
sg19
I389
sg20
g0
(g21
g22
(dp181
I01
I24
sNI365
stp182
Rp183
(dp184
g19
I389
sg27
Nsg28
Nsg29
Nsbsg30
I2
sg31
F390.0
sbs(g8
S'keyword-count-10'
p185
tp186
g0
(g14
g2
Ntp187
Rp188
(dp189
g18
F0.5
sg19
I389
sg20
g0
(g21
g22
(dp190
I01
I21
sNI368
stp191
Rp192
(dp193
g19
I389
sg27
Nsg28
Nsg29
Nsbsg30
I2
sg31
F390.0
sbs(g8
S'keyword-count-6'
p194
tp195
g0
(g14
g2
Ntp196
Rp197
(dp198
g18
F0.5
sg19
I389
sg20
g0
(g21
g22
(dp199
I01
I56
sNI333
stp200
Rp201
(dp202
g19
I389
sg27
Nsg28
Nsg29
Nsbsg30
I2
sg31
F390.0
sbs(g9
S'keyword-count-4'
p203
tp204
g0
(g14
g2
Ntp205
Rp206
(dp207
g18
F0.5
sg19
I66
sg20
g0
(g21
g22
(dp208
I01
I16
sNI50
stp209
Rp210
(dp211
g19
I66
sg27
Nsg28
Nsg29
Nsbsg30
I2
sg31
F67.0
sbs(g148
S'keyword-count-9'
p212
tp213
g0
(g14
g2
Ntp214
Rp215
(dp216
g18
F0.5
sg19
I66
sg20
g0
(g21
g22
(dp217
I01
I1
sNI65
stp218
Rp219
(dp220
g19
I66
sg27
Nsg28
Nsg29
Nsbsg30
I2
sg31
F67.0
sbs(g9
S'keyword-count-2'
p221
tp222
g0
(g14
g2
Ntp223
Rp224
(dp225
g18
F0.5
sg19
I66
sg20
g0
(g21
g22
(dp226
I01
I25
sNI41
stp227
Rp228
(dp229
g19
I66
sg27
Nsg28
Nsg29
Nsbsg30
I2
sg31
F67.0
sbs(S'acc'
p230
S'keyword-count-5'
p231
tp232
g0
(g14
g2
Ntp233
Rp234
(dp235
g18
F0.5
sg19
I66
sg20
g0
(g21
g22
(dp236
I01
I11
sNI55
stp237
Rp238
(dp239
g19
I66
sg27
Nsg28
Nsg29
Nsbsg30
I2
sg31
F67.0
sbs(g8
S'keyword-count-3'
p240
tp241
g0
(g14
g2
Ntp242
Rp243
(dp244
g18
F0.5
sg19
I389
sg20
g0
(g21
g22
(dp245
I01
I115
sNI274
stp246
Rp247
(dp248
g19
I389
sg27
Nsg28
Nsg29
Nsbsg30
I2
sg31
F390.0
sbs(g8
S'keyword-count-8'
p249
tp250
g0
(g14
g2
Ntp251
Rp252
(dp253
g18
F0.5
sg19
I389
sg20
g0
(g21
g22
(dp254
I01
I29
sNI360
stp255
Rp256
(dp257
g19
I389
sg27
Nsg28
Nsg29
Nsbsg30
I2
sg31
F390.0
sbssS'_label_probdist'
p258
g0
(g14
g2
Ntp259
Rp260
(dp261
g18
F0.5
sg19
I455
sg20
g0
(g21
g22
(dp262
g9
I66
sg8
I389
stp263
Rp264
(dp265
g19
I455
sg27
Nsg28
(lp266
(g8
I389
tp267
a(g9
I66
tp268
asg29
Nsbsg30
I2
sg31
F456.0
sbsbcwedt.features
featureset_sample
p269
tp270
.