(ccopy_reg
_reconstructor
p0
(cnltk.classify.naivebayes
NaiveBayesClassifier
p1
c__builtin__
object
p2
Ntp3
Rp4
(dp5
S'_labels'
p6
(lp7
S'nope'
p8
aS'acc'
p9
asS'_feature_probdist'
p10
(dp11
(g9
S'keyword-count-1'
p12
tp13
g0
(cnltk.probability
ELEProbDist
p14
g2
Ntp15
Rp16
(dp17
S'_gamma'
p18
F0.5
sS'_N'
p19
I99
sS'_freqdist'
p20
g0
(cnltk.probability
FreqDist
p21
c__builtin__
dict
p22
(dp23
I01
I69
sNI30
stp24
Rp25
(dp26
g19
I99
sS'_max_cache'
p27
NsS'_item_cache'
p28
NsS'_Nr_cache'
p29
NsbsS'_bins'
p30
I2
sS'_divisor'
p31
F100.0
sbs(S'acc'
p32
S'keyword-count-8'
p33
tp34
g0
(g14
g2
Ntp35
Rp36
(dp37
g18
F0.5
sg19
I99
sg20
g0
(g21
g22
(dp38
I01
I3
sNI96
stp39
Rp40
(dp41
g19
I99
sg27
Nsg28
Nsg29
Nsbsg30
I2
sg31
F100.0
sbs(g9
S'author-mentioned'
p42
tp43
g0
(g14
g2
Ntp44
Rp45
(dp46
g18
F0.5
sg19
I99
sg20
g0
(g21
g22
(dp47
I01
I99
stp48
Rp49
(dp50
g19
I99
sg27
Nsg28
Nsg29
Nsbsg30
I2
sg31
F100.0
sbs(g9
S'written-by-op'
p51
tp52
g0
(g14
g2
Ntp53
Rp54
(dp55
g18
F0.5
sg19
I99
sg20
g0
(g21
g22
(dp56
I01
I99
stp57
Rp58
(dp59
g19
I99
sg27
Nsg28
Nsg29
Nsbsg30
I2
sg31
F100.0
sbs(g8
S'author-thanked'
p60
tp61
g0
(g14
g2
Ntp62
Rp63
(dp64
g18
F0.5
sg19
I948
sg20
g0
(g21
g22
(dp65
I00
I732
sI01
I216
stp66
Rp67
(dp68
g19
I948
sg27
Nsg28
Nsg29
Nsbsg30
I3
sg31
F949.5
sbs(g8
g42
tp69
g0
(g14
g2
Ntp70
Rp71
(dp72
g18
F0.5
sg19
I948
sg20
g0
(g21
g22
(dp73
I01
I948
stp74
Rp75
(dp76
g19
I948
sg27
Nsg28
Nsg29
Nsbsg30
I2
sg31
F949.0
sbs(g8
g51
tp77
g0
(g14
g2
Ntp78
Rp79
(dp80
g18
F0.5
sg19
I948
sg20
g0
(g21
g22
(dp81
I01
I948
stp82
Rp83
(dp84
g19
I948
sg27
Nsg28
Nsg29
Nsbsg30
I2
sg31
F949.0
sbs(S'nope'
p85
S'keyword-count-5'
p86
tp87
g0
(g14
g2
Ntp88
Rp89
(dp90
g18
F0.5
sg19
I948
sg20
g0
(g21
g22
(dp91
I01
I44
sNI904
stp92
Rp93
(dp94
g19
I948
sg27
Nsg28
Nsg29
Nsbsg30
I2
sg31
F949.0
sbs(g9
g60
tp95
g0
(g14
g2
Ntp96
Rp97
(dp98
g18
F0.5
sg19
I99
sg20
g0
(g21
g22
(dp99
I00
I77
sI01
I22
stp100
Rp101
(dp102
g19
I99
sg27
Nsg28
Nsg29
Nsbsg30
I3
sg31
F100.5
sbs(S'nope'
p103
S'keyword-count-2'
p104
tp105
g0
(g14
g2
Ntp106
Rp107
(dp108
g18
F0.5
sg19
I948
sg20
g0
(g21
g22
(dp109
I01
I209
sNI739
stp110
Rp111
(dp112
g19
I948
sg27
Nsg28
Nsg29
Nsbsg30
I2
sg31
F949.0
sbs(g9
S'longer-than-op'
p113
tp114
g0
(g14
g2
Ntp115
Rp116
(dp117
g18
F0.5
sg19
I99
sg20
g0
(g21
g22
(dp118
I00
I18
sI01
I81
stp119
Rp120
(dp121
g19
I99
sg27
Nsg28
Nsg29
Nsbsg30
I3
sg31
F100.5
sbs(g8
g113
tp122
g0
(g14
g2
Ntp123
Rp124
(dp125
g18
F0.5
sg19
I948
sg20
g0
(g21
g22
(dp126
I00
I398
sI01
I550
stp127
Rp128
(dp129
g19
I948
sg27
Nsg28
Nsg29
Nsbsg30
I3
sg31
F949.5
sbs(g85
S'keyword-count-3'
p130
tp131
g0
(g14
g2
Ntp132
Rp133
(dp134
g18
F0.5
sg19
I948
sg20
g0
(g21
g22
(dp135
I01
I105
sNI843
stp136
Rp137
(dp138
g19
I948
sg27
Nsg28
Nsg29
Nsbsg30
I2
sg31
F949.0
sbs(g85
S'keyword-count-7'
p139
tp140
g0
(g14
g2
Ntp141
Rp142
(dp143
g18
F0.5
sg19
I948
sg20
g0
(g21
g22
(dp144
I01
I23
sNI925
stp145
Rp146
(dp147
g19
I948
sg27
Nsg28
Nsg29
Nsbsg30
I2
sg31
F949.0
sbs(S'acc'
p148
S'keyword-count-3'
p149
tp150
g0
(g14
g2
Ntp151
Rp152
(dp153
g18
F0.5
sg19
I99
sg20
g0
(g21
g22
(dp154
I01
I20
sNI79
stp155
Rp156
(dp157
g19
I99
sg27
Nsg28
Nsg29
Nsbsg30
I2
sg31
F100.0
sbs(g85
S'keyword-count-4'
p158
tp159
g0
(g14
g2
Ntp160
Rp161
(dp162
g18
F0.5
sg19
I948
sg20
g0
(g21
g22
(dp163
I01
I59
sNI889
stp164
Rp165
(dp166
g19
I948
sg27
Nsg28
Nsg29
Nsbsg30
I2
sg31
F949.0
sbs(S'acc'
p167
S'keyword-count-10'
p168
tp169
g0
(g14
g2
Ntp170
Rp171
(dp172
g18
F0.5
sg19
I99
sg20
g0
(g21
g22
(dp173
I01
I1
sNI98
stp174
Rp175
(dp176
g19
I99
sg27
Nsg28
Nsg29
Nsbsg30
I2
sg31
F100.0
sbs(g8
S'keyword-count-1'
p177
tp178
g0
(g14
g2
Ntp179
Rp180
(dp181
g18
F0.5
sg19
I948
sg20
g0
(g21
g22
(dp182
I01
I482
sNI466
stp183
Rp184
(dp185
g19
I948
sg27
Nsg28
Nsg29
Nsbsg30
I2
sg31
F949.0
sbs(S'acc'
p186
S'keyword-count-6'
p187
tp188
g0
(g14
g2
Ntp189
Rp190
(dp191
g18
F0.5
sg19
I99
sg20
g0
(g21
g22
(dp192
I01
I5
sNI94
stp193
Rp194
(dp195
g19
I99
sg27
Nsg28
Nsg29
Nsbsg30
I2
sg31
F100.0
sbs(g85
S'keyword-count-9'
p196
tp197
g0
(g14
g2
Ntp198
Rp199
(dp200
g18
F0.5
sg19
I948
sg20
g0
(g21
g22
(dp201
I01
I15
sNI933
stp202
Rp203
(dp204
g19
I948
sg27
Nsg28
Nsg29
Nsbsg30
I2
sg31
F949.0
sbs(g85
S'keyword-count-10'
p205
tp206
g0
(g14
g2
Ntp207
Rp208
(dp209
g18
F0.5
sg19
I948
sg20
g0
(g21
g22
(dp210
I01
I12
sNI936
stp211
Rp212
(dp213
g19
I948
sg27
Nsg28
Nsg29
Nsbsg30
I2
sg31
F949.0
sbs(g85
S'keyword-count-6'
p214
tp215
g0
(g14
g2
Ntp216
Rp217
(dp218
g18
F0.5
sg19
I948
sg20
g0
(g21
g22
(dp219
I01
I31
sNI917
stp220
Rp221
(dp222
g19
I948
sg27
Nsg28
Nsg29
Nsbsg30
I2
sg31
F949.0
sbs(g186
S'keyword-count-4'
p223
tp224
g0
(g14
g2
Ntp225
Rp226
(dp227
g18
F0.5
sg19
I99
sg20
g0
(g21
g22
(dp228
I01
I9
sNI90
stp229
Rp230
(dp231
g19
I99
sg27
Nsg28
Nsg29
Nsbsg30
I2
sg31
F100.0
sbs(g167
S'keyword-count-9'
p232
tp233
g0
(g14
g2
Ntp234
Rp235
(dp236
g18
F0.5
sg19
I99
sg20
g0
(g21
g22
(dp237
I01
I1
sNI98
stp238
Rp239
(dp240
g19
I99
sg27
Nsg28
Nsg29
Nsbsg30
I2
sg31
F100.0
sbs(g148
S'keyword-count-2'
p241
tp242
g0
(g14
g2
Ntp243
Rp244
(dp245
g18
F0.5
sg19
I99
sg20
g0
(g21
g22
(dp246
I01
I33
sNI66
stp247
Rp248
(dp249
g19
I99
sg27
Nsg28
Nsg29
Nsbsg30
I2
sg31
F100.0
sbs(g186
S'keyword-count-5'
p250
tp251
g0
(g14
g2
Ntp252
Rp253
(dp254
g18
F0.5
sg19
I99
sg20
g0
(g21
g22
(dp255
I01
I9
sNI90
stp256
Rp257
(dp258
g19
I99
sg27
Nsg28
Nsg29
Nsbsg30
I2
sg31
F100.0
sbs(S'acc'
p259
S'keyword-count-7'
p260
tp261
g0
(g14
g2
Ntp262
Rp263
(dp264
g18
F0.5
sg19
I99
sg20
g0
(g21
g22
(dp265
I01
I4
sNI95
stp266
Rp267
(dp268
g19
I99
sg27
Nsg28
Nsg29
Nsbsg30
I2
sg31
F100.0
sbs(g85
S'keyword-count-8'
p269
tp270
g0
(g14
g2
Ntp271
Rp272
(dp273
g18
F0.5
sg19
I948
sg20
g0
(g21
g22
(dp274
I01
I20
sNI928
stp275
Rp276
(dp277
g19
I948
sg27
Nsg28
Nsg29
Nsbsg30
I2
sg31
F949.0
sbssS'_label_probdist'
p278
g0
(g14
g2
Ntp279
Rp280
(dp281
g18
F0.5
sg19
I1047
sg20
g0
(g21
g22
(dp282
g9
I99
sg8
I948
stp283
Rp284
(dp285
g19
I1047
sg27
Nsg28
(lp286
(g8
I948
tp287
a(g9
I99
tp288
asg29
Nsbsg30
I2
sg31
F1048.0
sbsbcwedt.features
featureset
p289
tp290
.