(ccopy_reg
_reconstructor
p0
(cnltk.classify.naivebayes
NaiveBayesClassifier
p1
c__builtin__
object
p2
Ntp3
Rp4
(dp5
S'_labels'
p6
(lp7
S'nope'
p8
aS'acc'
p9
asS'_feature_probdist'
p10
(dp11
(S'nope'
p12
S'keyword-count-5'
p13
tp14
g0
(cnltk.probability
ELEProbDist
p15
g2
Ntp16
Rp17
(dp18
S'_gamma'
p19
F0.5
sS'_N'
p20
I390
sS'_freqdist'
p21
g0
(cnltk.probability
FreqDist
p22
c__builtin__
dict
p23
(dp24
I01
I69
sNI321
stp25
Rp26
(dp27
g20
I390
sS'_max_cache'
p28
NsS'_item_cache'
p29
NsS'_Nr_cache'
p30
NsbsS'_bins'
p31
I2
sS'_divisor'
p32
F391.0
sbs(S'acc'
p33
S'keyword-count-8'
p34
tp35
g0
(g15
g2
Ntp36
Rp37
(dp38
g19
F0.5
sg20
I65
sg21
g0
(g22
g23
(dp39
I01
I2
sNI63
stp40
Rp41
(dp42
g20
I65
sg28
Nsg29
Nsg30
Nsbsg31
I2
sg32
F66.0
sbs(g9
S'author-mentioned'
p43
tp44
g0
(g15
g2
Ntp45
Rp46
(dp47
g19
F0.5
sg20
I65
sg21
g0
(g22
g23
(dp48
I01
I65
stp49
Rp50
(dp51
g20
I65
sg28
Nsg29
Nsg30
Nsbsg31
I2
sg32
F66.0
sbs(g9
S'written-by-op'
p52
tp53
g0
(g15
g2
Ntp54
Rp55
(dp56
g19
F0.5
sg20
I65
sg21
g0
(g22
g23
(dp57
I01
I65
stp58
Rp59
(dp60
g20
I65
sg28
Nsg29
Nsg30
Nsbsg31
I2
sg32
F66.0
sbs(g8
S'author-thanked'
p61
tp62
g0
(g15
g2
Ntp63
Rp64
(dp65
g19
F0.5
sg20
I390
sg21
g0
(g22
g23
(dp66
I00
I359
sI01
I31
stp67
Rp68
(dp69
g20
I390
sg28
Nsg29
Nsg30
Nsbsg31
I3
sg32
F391.5
sbs(g8
g43
tp70
g0
(g15
g2
Ntp71
Rp72
(dp73
g19
F0.5
sg20
I390
sg21
g0
(g22
g23
(dp74
I01
I390
stp75
Rp76
(dp77
g20
I390
sg28
Nsg29
Nsg30
Nsbsg31
I2
sg32
F391.0
sbs(g8
g52
tp78
g0
(g15
g2
Ntp79
Rp80
(dp81
g19
F0.5
sg20
I390
sg21
g0
(g22
g23
(dp82
I01
I390
stp83
Rp84
(dp85
g20
I390
sg28
Nsg29
Nsg30
Nsbsg31
I2
sg32
F391.0
sbs(S'acc'
p86
S'keyword-count-1'
p87
tp88
g0
(g15
g2
Ntp89
Rp90
(dp91
g19
F0.5
sg20
I65
sg21
g0
(g22
g23
(dp92
I01
I41
sNI24
stp93
Rp94
(dp95
g20
I65
sg28
Nsg29
Nsg30
Nsbsg31
I2
sg32
F66.0
sbs(g9
g61
tp96
g0
(g15
g2
Ntp97
Rp98
(dp99
g19
F0.5
sg20
I65
sg21
g0
(g22
g23
(dp100
I00
I61
sI01
I4
stp101
Rp102
(dp103
g20
I65
sg28
Nsg29
Nsg30
Nsbsg31
I3
sg32
F66.5
sbs(S'acc'
p104
S'keyword-count-6'
p105
tp106
g0
(g15
g2
Ntp107
Rp108
(dp109
g19
F0.5
sg20
I65
sg21
g0
(g22
g23
(dp110
I01
I6
sNI59
stp111
Rp112
(dp113
g20
I65
sg28
Nsg29
Nsg30
Nsbsg31
I2
sg32
F66.0
sbs(g9
S'longer-than-op'
p114
tp115
g0
(g15
g2
Ntp116
Rp117
(dp118
g19
F0.5
sg20
I65
sg21
g0
(g22
g23
(dp119
I00
I19
sI01
I46
stp120
Rp121
(dp122
g20
I65
sg28
Nsg29
Nsg30
Nsbsg31
I3
sg32
F66.5
sbs(g8
g114
tp123
g0
(g15
g2
Ntp124
Rp125
(dp126
g19
F0.5
sg20
I390
sg21
g0
(g22
g23
(dp127
I00
I240
sI01
I150
stp128
Rp129
(dp130
g20
I390
sg28
Nsg29
Nsg30
Nsbsg31
I3
sg32
F391.5
sbs(g8
S'keyword-count-3'
p131
tp132
g0
(g15
g2
Ntp133
Rp134
(dp135
g19
F0.5
sg20
I390
sg21
g0
(g22
g23
(dp136
I01
I115
sNI275
stp137
Rp138
(dp139
g20
I390
sg28
Nsg29
Nsg30
Nsbsg31
I2
sg32
F391.0
sbs(g12
S'keyword-count-7'
p140
tp141
g0
(g15
g2
Ntp142
Rp143
(dp144
g19
F0.5
sg20
I390
sg21
g0
(g22
g23
(dp145
I01
I42
sNI348
stp146
Rp147
(dp148
g20
I390
sg28
Nsg29
Nsg30
Nsbsg31
I2
sg32
F391.0
sbs(g86
S'keyword-count-3'
p149
tp150
g0
(g15
g2
Ntp151
Rp152
(dp153
g19
F0.5
sg20
I65
sg21
g0
(g22
g23
(dp154
I01
I17
sNI48
stp155
Rp156
(dp157
g20
I65
sg28
Nsg29
Nsg30
Nsbsg31
I2
sg32
F66.0
sbs(g12
S'keyword-count-4'
p158
tp159
g0
(g15
g2
Ntp160
Rp161
(dp162
g19
F0.5
sg20
I390
sg21
g0
(g22
g23
(dp163
I01
I90
sNI300
stp164
Rp165
(dp166
g20
I390
sg28
Nsg29
Nsg30
Nsbsg31
I2
sg32
F391.0
sbs(S'acc'
p167
S'keyword-count-10'
p168
tp169
g0
(g15
g2
Ntp170
Rp171
(dp172
g19
F0.5
sg20
I65
sg21
g0
(g22
g23
(dp173
I01
I1
sNI64
stp174
Rp175
(dp176
g20
I65
sg28
Nsg29
Nsg30
Nsbsg31
I2
sg32
F66.0
sbs(g8
S'keyword-count-1'
p177
tp178
g0
(g15
g2
Ntp179
Rp180
(dp181
g19
F0.5
sg20
I390
sg21
g0
(g22
g23
(dp182
I01
I223
sNI167
stp183
Rp184
(dp185
g20
I390
sg28
Nsg29
Nsg30
Nsbsg31
I2
sg32
F391.0
sbs(g8
S'keyword-count-2'
p186
tp187
g0
(g15
g2
Ntp188
Rp189
(dp190
g19
F0.5
sg20
I390
sg21
g0
(g22
g23
(dp191
I01
I159
sNI231
stp192
Rp193
(dp194
g20
I390
sg28
Nsg29
Nsg30
Nsbsg31
I2
sg32
F391.0
sbs(g12
S'keyword-count-9'
p195
tp196
g0
(g15
g2
Ntp197
Rp198
(dp199
g19
F0.5
sg20
I390
sg21
g0
(g22
g23
(dp200
I01
I24
sNI366
stp201
Rp202
(dp203
g20
I390
sg28
Nsg29
Nsg30
Nsbsg31
I2
sg32
F391.0
sbs(g12
S'keyword-count-10'
p204
tp205
g0
(g15
g2
Ntp206
Rp207
(dp208
g19
F0.5
sg20
I390
sg21
g0
(g22
g23
(dp209
I01
I21
sNI369
stp210
Rp211
(dp212
g20
I390
sg28
Nsg29
Nsg30
Nsbsg31
I2
sg32
F391.0
sbs(g12
S'keyword-count-6'
p213
tp214
g0
(g15
g2
Ntp215
Rp216
(dp217
g19
F0.5
sg20
I390
sg21
g0
(g22
g23
(dp218
I01
I56
sNI334
stp219
Rp220
(dp221
g20
I390
sg28
Nsg29
Nsg30
Nsbsg31
I2
sg32
F391.0
sbs(g86
S'keyword-count-4'
p222
tp223
g0
(g15
g2
Ntp224
Rp225
(dp226
g19
F0.5
sg20
I65
sg21
g0
(g22
g23
(dp227
I01
I16
sNI49
stp228
Rp229
(dp230
g20
I65
sg28
Nsg29
Nsg30
Nsbsg31
I2
sg32
F66.0
sbs(g167
S'keyword-count-9'
p231
tp232
g0
(g15
g2
Ntp233
Rp234
(dp235
g19
F0.5
sg20
I65
sg21
g0
(g22
g23
(dp236
I01
I1
sNI64
stp237
Rp238
(dp239
g20
I65
sg28
Nsg29
Nsg30
Nsbsg31
I2
sg32
F66.0
sbs(g86
S'keyword-count-2'
p240
tp241
g0
(g15
g2
Ntp242
Rp243
(dp244
g19
F0.5
sg20
I65
sg21
g0
(g22
g23
(dp245
I01
I24
sNI41
stp246
Rp247
(dp248
g20
I65
sg28
Nsg29
Nsg30
Nsbsg31
I2
sg32
F66.0
sbs(g104
S'keyword-count-5'
p249
tp250
g0
(g15
g2
Ntp251
Rp252
(dp253
g19
F0.5
sg20
I65
sg21
g0
(g22
g23
(dp254
I01
I11
sNI54
stp255
Rp256
(dp257
g20
I65
sg28
Nsg29
Nsg30
Nsbsg31
I2
sg32
F66.0
sbs(g104
S'keyword-count-7'
p258
tp259
g0
(g15
g2
Ntp260
Rp261
(dp262
g19
F0.5
sg20
I65
sg21
g0
(g22
g23
(dp263
I01
I4
sNI61
stp264
Rp265
(dp266
g20
I65
sg28
Nsg29
Nsg30
Nsbsg31
I2
sg32
F66.0
sbs(g12
S'keyword-count-8'
p267
tp268
g0
(g15
g2
Ntp269
Rp270
(dp271
g19
F0.5
sg20
I390
sg21
g0
(g22
g23
(dp272
I01
I29
sNI361
stp273
Rp274
(dp275
g20
I390
sg28
Nsg29
Nsg30
Nsbsg31
I2
sg32
F391.0
sbssS'_label_probdist'
p276
g0
(g15
g2
Ntp277
Rp278
(dp279
g19
F0.5
sg20
I455
sg21
g0
(g22
g23
(dp280
g9
I65
sg8
I390
stp281
Rp282
(dp283
g20
I455
sg28
Nsg29
(lp284
(g8
I390
tp285
a(g9
I65
tp286
asg30
Nsbsg31
I2
sg32
F456.0
sbsbcwedt.features
featureset
p287
tp288
.