(ccopy_reg
_reconstructor
p0
(cnltk.classify.naivebayes
NaiveBayesClassifier
p1
c__builtin__
object
p2
Ntp3
Rp4
(dp5
S'_labels'
p6
(lp7
S'nope'
p8
aS'acc'
p9
asS'_feature_probdist'
p10
(dp11
(S'nope'
p12
S'keyword-count-5'
p13
tp14
g0
(cnltk.probability
ELEProbDist
p15
g2
Ntp16
Rp17
(dp18
S'_gamma'
p19
F0.5
sS'_N'
p20
I569
sS'_freqdist'
p21
g0
(cnltk.probability
FreqDist
p22
c__builtin__
dict
p23
(dp24
I01
I32
sNI537
stp25
Rp26
(dp27
g20
I569
sS'_max_cache'
p28
NsS'_item_cache'
p29
NsS'_Nr_cache'
p30
NsbsS'_bins'
p31
I2
sS'_divisor'
p32
F570.0
sbs(S'acc'
p33
S'keyword-count-8'
p34
tp35
g0
(g15
g2
Ntp36
Rp37
(dp38
g19
F0.5
sg20
I100
sg21
g0
(g22
g23
(dp39
I01
I1
sNI99
stp40
Rp41
(dp42
g20
I100
sg28
Nsg29
Nsg30
Nsbsg31
I2
sg32
F101.0
sbs(g9
S'author-mentioned'
p43
tp44
g0
(g15
g2
Ntp45
Rp46
(dp47
g19
F0.5
sg20
I100
sg21
g0
(g22
g23
(dp48
I01
I100
stp49
Rp50
(dp51
g20
I100
sg28
Nsg29
Nsg30
Nsbsg31
I2
sg32
F101.0
sbs(g9
S'written-by-op'
p52
tp53
g0
(g15
g2
Ntp54
Rp55
(dp56
g19
F0.5
sg20
I100
sg21
g0
(g22
g23
(dp57
I01
I100
stp58
Rp59
(dp60
g20
I100
sg28
Nsg29
Nsg30
Nsbsg31
I2
sg32
F101.0
sbs(g8
S'author-thanked'
p61
tp62
g0
(g15
g2
Ntp63
Rp64
(dp65
g19
F0.5
sg20
I569
sg21
g0
(g22
g23
(dp66
I00
I507
sI01
I62
stp67
Rp68
(dp69
g20
I569
sg28
Nsg29
Nsg30
Nsbsg31
I3
sg32
F570.5
sbs(g8
g43
tp70
g0
(g15
g2
Ntp71
Rp72
(dp73
g19
F0.5
sg20
I569
sg21
g0
(g22
g23
(dp74
I01
I569
stp75
Rp76
(dp77
g20
I569
sg28
Nsg29
Nsg30
Nsbsg31
I2
sg32
F570.0
sbs(g8
g52
tp78
g0
(g15
g2
Ntp79
Rp80
(dp81
g19
F0.5
sg20
I569
sg21
g0
(g22
g23
(dp82
I01
I569
stp83
Rp84
(dp85
g20
I569
sg28
Nsg29
Nsg30
Nsbsg31
I2
sg32
F570.0
sbs(S'acc'
p86
S'keyword-count-1'
p87
tp88
g0
(g15
g2
Ntp89
Rp90
(dp91
g19
F0.5
sg20
I100
sg21
g0
(g22
g23
(dp92
I01
I45
sNI55
stp93
Rp94
(dp95
g20
I100
sg28
Nsg29
Nsg30
Nsbsg31
I2
sg32
F101.0
sbs(g9
g61
tp96
g0
(g15
g2
Ntp97
Rp98
(dp99
g19
F0.5
sg20
I100
sg21
g0
(g22
g23
(dp100
I00
I90
sI01
I10
stp101
Rp102
(dp103
g20
I100
sg28
Nsg29
Nsg30
Nsbsg31
I3
sg32
F101.5
sbs(g33
S'keyword-count-6'
p104
tp105
g0
(g15
g2
Ntp106
Rp107
(dp108
g19
F0.5
sg20
I100
sg21
g0
(g22
g23
(dp109
I01
I1
sNI99
stp110
Rp111
(dp112
g20
I100
sg28
Nsg29
Nsg30
Nsbsg31
I2
sg32
F101.0
sbs(g9
S'longer-than-op'
p113
tp114
g0
(g15
g2
Ntp115
Rp116
(dp117
g19
F0.5
sg20
I100
sg21
g0
(g22
g23
(dp118
I00
I35
sI01
I65
stp119
Rp120
(dp121
g20
I100
sg28
Nsg29
Nsg30
Nsbsg31
I3
sg32
F101.5
sbs(g8
g113
tp122
g0
(g15
g2
Ntp123
Rp124
(dp125
g19
F0.5
sg20
I569
sg21
g0
(g22
g23
(dp126
I00
I339
sI01
I230
stp127
Rp128
(dp129
g20
I569
sg28
Nsg29
Nsg30
Nsbsg31
I3
sg32
F570.5
sbs(g8
S'keyword-count-3'
p130
tp131
g0
(g15
g2
Ntp132
Rp133
(dp134
g19
F0.5
sg20
I569
sg21
g0
(g22
g23
(dp135
I01
I73
sNI496
stp136
Rp137
(dp138
g20
I569
sg28
Nsg29
Nsg30
Nsbsg31
I2
sg32
F570.0
sbs(S'nope'
p139
S'keyword-count-7'
p140
tp141
g0
(g15
g2
Ntp142
Rp143
(dp144
g19
F0.5
sg20
I569
sg21
g0
(g22
g23
(dp145
I01
I20
sNI549
stp146
Rp147
(dp148
g20
I569
sg28
Nsg29
Nsg30
Nsbsg31
I2
sg32
F570.0
sbs(S'acc'
p149
S'keyword-count-3'
p150
tp151
g0
(g15
g2
Ntp152
Rp153
(dp154
g19
F0.5
sg20
I100
sg21
g0
(g22
g23
(dp155
I01
I6
sNI94
stp156
Rp157
(dp158
g20
I100
sg28
Nsg29
Nsg30
Nsbsg31
I2
sg32
F101.0
sbs(g12
S'keyword-count-4'
p159
tp160
g0
(g15
g2
Ntp161
Rp162
(dp163
g19
F0.5
sg20
I569
sg21
g0
(g22
g23
(dp164
I01
I46
sNI523
stp165
Rp166
(dp167
g20
I569
sg28
Nsg29
Nsg30
Nsbsg31
I2
sg32
F570.0
sbs(g33
S'keyword-count-10'
p168
tp169
g0
(g15
g2
Ntp170
Rp171
(dp172
g19
F0.5
sg20
I100
sg21
g0
(g22
g23
(dp173
I01
I1
sNI99
stp174
Rp175
(dp176
g20
I100
sg28
Nsg29
Nsg30
Nsbsg31
I2
sg32
F101.0
sbs(g8
S'keyword-count-1'
p177
tp178
g0
(g15
g2
Ntp179
Rp180
(dp181
g19
F0.5
sg20
I569
sg21
g0
(g22
g23
(dp182
I01
I256
sNI313
stp183
Rp184
(dp185
g20
I569
sg28
Nsg29
Nsg30
Nsbsg31
I2
sg32
F570.0
sbs(g8
S'keyword-count-2'
p186
tp187
g0
(g15
g2
Ntp188
Rp189
(dp190
g19
F0.5
sg20
I569
sg21
g0
(g22
g23
(dp191
I01
I119
sNI450
stp192
Rp193
(dp194
g20
I569
sg28
Nsg29
Nsg30
Nsbsg31
I2
sg32
F570.0
sbs(g139
S'keyword-count-9'
p195
tp196
g0
(g15
g2
Ntp197
Rp198
(dp199
g19
F0.5
sg20
I569
sg21
g0
(g22
g23
(dp200
I01
I15
sNI554
stp201
Rp202
(dp203
g20
I569
sg28
Nsg29
Nsg30
Nsbsg31
I2
sg32
F570.0
sbs(g139
S'keyword-count-10'
p204
tp205
g0
(g15
g2
Ntp206
Rp207
(dp208
g19
F0.5
sg20
I569
sg21
g0
(g22
g23
(dp209
I01
I15
sNI554
stp210
Rp211
(dp212
g20
I569
sg28
Nsg29
Nsg30
Nsbsg31
I2
sg32
F570.0
sbs(g139
S'keyword-count-6'
p213
tp214
g0
(g15
g2
Ntp215
Rp216
(dp217
g19
F0.5
sg20
I569
sg21
g0
(g22
g23
(dp218
I01
I26
sNI543
stp219
Rp220
(dp221
g20
I569
sg28
Nsg29
Nsg30
Nsbsg31
I2
sg32
F570.0
sbs(S'acc'
p222
S'keyword-count-4'
p223
tp224
g0
(g15
g2
Ntp225
Rp226
(dp227
g19
F0.5
sg20
I100
sg21
g0
(g22
g23
(dp228
I01
I3
sNI97
stp229
Rp230
(dp231
g20
I100
sg28
Nsg29
Nsg30
Nsbsg31
I2
sg32
F101.0
sbs(g33
S'keyword-count-9'
p232
tp233
g0
(g15
g2
Ntp234
Rp235
(dp236
g19
F0.5
sg20
I100
sg21
g0
(g22
g23
(dp237
I01
I1
sNI99
stp238
Rp239
(dp240
g20
I100
sg28
Nsg29
Nsg30
Nsbsg31
I2
sg32
F101.0
sbs(g86
S'keyword-count-2'
p241
tp242
g0
(g15
g2
Ntp243
Rp244
(dp245
g19
F0.5
sg20
I100
sg21
g0
(g22
g23
(dp246
I01
I18
sNI82
stp247
Rp248
(dp249
g20
I100
sg28
Nsg29
Nsg30
Nsbsg31
I2
sg32
F101.0
sbs(g33
S'keyword-count-5'
p250
tp251
g0
(g15
g2
Ntp252
Rp253
(dp254
g19
F0.5
sg20
I100
sg21
g0
(g22
g23
(dp255
I01
I1
sNI99
stp256
Rp257
(dp258
g20
I100
sg28
Nsg29
Nsg30
Nsbsg31
I2
sg32
F101.0
sbs(g33
S'keyword-count-7'
p259
tp260
g0
(g15
g2
Ntp261
Rp262
(dp263
g19
F0.5
sg20
I100
sg21
g0
(g22
g23
(dp264
I01
I1
sNI99
stp265
Rp266
(dp267
g20
I100
sg28
Nsg29
Nsg30
Nsbsg31
I2
sg32
F101.0
sbs(g139
S'keyword-count-8'
p268
tp269
g0
(g15
g2
Ntp270
Rp271
(dp272
g19
F0.5
sg20
I569
sg21
g0
(g22
g23
(dp273
I01
I15
sNI554
stp274
Rp275
(dp276
g20
I569
sg28
Nsg29
Nsg30
Nsbsg31
I2
sg32
F570.0
sbssS'_label_probdist'
p277
g0
(g15
g2
Ntp278
Rp279
(dp280
g19
F0.5
sg20
I669
sg21
g0
(g22
g23
(dp281
g9
I100
sg8
I569
stp282
Rp283
(dp284
g20
I669
sg28
Nsg29
(lp285
(g8
I569
tp286
a(g9
I100
tp287
asg30
Nsbsg31
I2
sg32
F670.0
sbsbcwedt.features
featureset
p288
tp289
.